target datalayout = "e-m:e-p270:32:32-p271:32:32-p272:64:64-i64:64-i128:128-f80:128-n8:16:32:64-S128"
target triple = "x86_64-pc-linux-gnu"

%struct._object = type { %union.anon, ptr }
%union.anon = type { i64 }
%struct.PyBytesObject = type { %struct.PyVarObject, i64, [1 x i8] }
%struct.PyVarObject = type { %struct._object, i64 }
%struct.PicklerObject = type { %struct._object, ptr, ptr, ptr, ptr, ptr, ptr, ptr, i64, i64, i32, i32, i32, i64, i64, i32, i32, i32, ptr, ptr }
%struct.anon = type { i32, i32 }

; Function Attrs: alwaysinline nounwind uwtable
define internal i32 @_Py_IsImmortal(ptr noundef %0) #4 {
  %2 = alloca ptr, align 8
  store ptr %0, ptr %2, align 8, !tbaa !3
  %3 = load ptr, ptr %2, align 8, !tbaa !3
  %4 = getelementptr inbounds nuw %struct._object, ptr %3, i32 0, i32 0
  %5 = getelementptr inbounds nuw %struct.anon, ptr %4, i32 0, i32 0
  %6 = load i32, ptr %5, align 8, !tbaa !63
  %7 = icmp slt i32 %6, 0
  %8 = zext i1 %7 to i32
  ret i32 %8
}

; Function Attrs: nounwind uwtable
define internal void @_write_size64(ptr noundef %0, i64 noundef %1) #0 {
  %3 = alloca ptr, align 8
  %4 = alloca i64, align 8
  %5 = alloca i64, align 8
  store ptr %0, ptr %3, align 8, !tbaa !36
  store i64 %1, ptr %4, align 8, !tbaa !34
  call void @llvm.lifetime.start.p0(i64 8, ptr %5) #10
  store i64 0, ptr %5, align 8, !tbaa !34
  br label %6

6:                                                ; preds = %19, %2
  %7 = load i64, ptr %5, align 8, !tbaa !34
  %8 = icmp ult i64 %7, 8
  br i1 %8, label %9, label %22

9:                                                ; preds = %6
  %10 = load i64, ptr %4, align 8, !tbaa !34
  %11 = load i64, ptr %5, align 8, !tbaa !34
  %12 = mul i64 8, %11
  %13 = lshr i64 %10, %12
  %14 = and i64 %13, 255
  %15 = trunc i64 %14 to i8
  %16 = load ptr, ptr %3, align 8, !tbaa !36
  %17 = load i64, ptr %5, align 8, !tbaa !34
  %18 = getelementptr i8, ptr %16, i64 %17
  store i8 %15, ptr %18, align 1, !tbaa !63
  br label %19

19:                                               ; preds = %9
  %20 = load i64, ptr %5, align 8, !tbaa !34
  %21 = add i64 %20, 1
  store i64 %21, ptr %5, align 8, !tbaa !34
  br label %6, !llvm.loop !117

22:                                               ; preds = %6
  store i64 8, ptr %5, align 8, !tbaa !34
  br label %23

23:                                               ; preds = %30, %22
  %24 = load i64, ptr %5, align 8, !tbaa !34
  %25 = icmp ult i64 %24, 8
  br i1 %25, label %26, label %33

26:                                               ; preds = %23
  %27 = load ptr, ptr %3, align 8, !tbaa !36
  %28 = load i64, ptr %5, align 8, !tbaa !34
  %29 = getelementptr i8, ptr %27, i64 %28
  store i8 0, ptr %29, align 1, !tbaa !63
  br label %30

30:                                               ; preds = %26
  %31 = load i64, ptr %5, align 8, !tbaa !34
  %32 = add i64 %31, 1
  store i64 %32, ptr %5, align 8, !tbaa !34
  br label %23, !llvm.loop !118

33:                                               ; preds = %23
  call void @llvm.lifetime.end.p0(i64 8, ptr %5) #10
  ret void
}

; Function Attrs: inlinehint nounwind uwtable
define internal ptr @PyBytes_AS_STRING(ptr noundef %0) #3 {
  %2 = alloca ptr, align 8
  store ptr %0, ptr %2, align 8, !tbaa !3
  %3 = load ptr, ptr %2, align 8, !tbaa !3
  %4 = getelementptr inbounds nuw %struct.PyBytesObject, ptr %3, i32 0, i32 2
  %5 = getelementptr inbounds [1 x i8], ptr %4, i64 0, i64 0
  ret ptr %5
}

; Function Attrs: alwaysinline nounwind uwtable
define internal void @Py_DECREF(ptr noundef %0) #4 {
  %2 = alloca ptr, align 8
  store ptr %0, ptr %2, align 8, !tbaa !3
  %3 = load ptr, ptr %2, align 8, !tbaa !3
  %4 = call i32 @_Py_IsImmortal(ptr noundef %3)
  %5 = icmp ne i32 %4, 0
  br i1 %5, label %6, label %7

6:                                                ; preds = %1
  br label %16

7:                                                ; preds = %1
  %8 = load ptr, ptr %2, align 8, !tbaa !3
  %9 = getelementptr inbounds nuw %struct._object, ptr %8, i32 0, i32 0
  %10 = getelementptr inbounds nuw %struct.anon, ptr %9, i32 0, i32 0
  %11 = load i32, ptr %10, align 8, !tbaa !63
  %12 = add i32 %11, -1
  store i32 %12, ptr %10, align 8, !tbaa !63
  %13 = icmp eq i32 %12, 0
  br i1 %13, label %14, label %16

14:                                               ; preds = %7
  %15 = load ptr, ptr %2, align 8, !tbaa !3
  call void @_Py_Dealloc(ptr noundef %15)
  br label %16

16:                                               ; preds = %6, %14, %7
  ret void
}

; Function Attrs: nounwind uwtable
define internal i32 @_Pickler_CommitFrame(ptr noundef %0) #0 {
  %2 = alloca i32, align 4
  %3 = alloca ptr, align 8
  %4 = alloca i64, align 8
  %5 = alloca ptr, align 8
  %6 = alloca i32, align 4
  store ptr %0, ptr %3, align 8, !tbaa !38
  call void @llvm.lifetime.start.p0(i64 8, ptr %4) #10
  call void @llvm.lifetime.start.p0(i64 8, ptr %5) #10
  %7 = load ptr, ptr %3, align 8, !tbaa !38
  %8 = getelementptr inbounds nuw %struct.PicklerObject, ptr %7, i32 0, i32 12
  %9 = load i32, ptr %8, align 8, !tbaa !55
  %10 = icmp ne i32 %9, 0
  br i1 %10, label %11, label %16

11:                                               ; preds = %1
  %12 = load ptr, ptr %3, align 8, !tbaa !38
  %13 = getelementptr inbounds nuw %struct.PicklerObject, ptr %12, i32 0, i32 13
  %14 = load i64, ptr %13, align 8, !tbaa !56
  %15 = icmp eq i64 %14, -1
  br i1 %15, label %16, label %17

16:                                               ; preds = %11, %1
  store i32 0, ptr %2, align 4
  store i32 1, ptr %6, align 4
  br label %54

17:                                               ; preds = %11
  %18 = load ptr, ptr %3, align 8, !tbaa !38
  %19 = getelementptr inbounds nuw %struct.PicklerObject, ptr %18, i32 0, i32 8
  %20 = load i64, ptr %19, align 8, !tbaa !51
  %21 = load ptr, ptr %3, align 8, !tbaa !38
  %22 = getelementptr inbounds nuw %struct.PicklerObject, ptr %21, i32 0, i32 13
  %23 = load i64, ptr %22, align 8, !tbaa !56
  %24 = sub i64 %20, %23
  %25 = sub i64 %24, 9
  store i64 %25, ptr %4, align 8, !tbaa !34
  %26 = load ptr, ptr %3, align 8, !tbaa !38
  %27 = getelementptr inbounds nuw %struct.PicklerObject, ptr %26, i32 0, i32 7
  %28 = load ptr, ptr %27, align 8, !tbaa !50
  %29 = call ptr @PyBytes_AS_STRING(ptr noundef %28)
  %30 = load ptr, ptr %3, align 8, !tbaa !38
  %31 = getelementptr inbounds nuw %struct.PicklerObject, ptr %30, i32 0, i32 13
  %32 = load i64, ptr %31, align 8, !tbaa !56
  %33 = getelementptr i8, ptr %29, i64 %32
  store ptr %33, ptr %5, align 8, !tbaa !36
  %34 = load i64, ptr %4, align 8, !tbaa !34
  %35 = icmp uge i64 %34, 4
  br i1 %35, label %36, label %42

36:                                               ; preds = %17
  %37 = load ptr, ptr %5, align 8, !tbaa !36
  %38 = getelementptr i8, ptr %37, i64 0
  store i8 -107, ptr %38, align 1, !tbaa !63
  %39 = load ptr, ptr %5, align 8, !tbaa !36
  %40 = getelementptr i8, ptr %39, i64 1
  %41 = load i64, ptr %4, align 8, !tbaa !34
  call void @_write_size64(ptr noundef %40, i64 noundef %41)
  br label %51

42:                                               ; preds = %17
  %43 = load ptr, ptr %5, align 8, !tbaa !36
  %44 = load ptr, ptr %5, align 8, !tbaa !36
  %45 = getelementptr i8, ptr %44, i64 9
  %46 = load i64, ptr %4, align 8, !tbaa !34
  call void @llvm.memmove.p0.p0.i64(ptr align 1 %43, ptr align 1 %45, i64 %46, i1 false)
  %47 = load ptr, ptr %3, align 8, !tbaa !38
  %48 = getelementptr inbounds nuw %struct.PicklerObject, ptr %47, i32 0, i32 8
  %49 = load i64, ptr %48, align 8, !tbaa !51
  %50 = sub i64 %49, 9
  store i64 %50, ptr %48, align 8, !tbaa !51
  br label %51

51:                                               ; preds = %42, %36
  %52 = load ptr, ptr %3, align 8, !tbaa !38
  %53 = getelementptr inbounds nuw %struct.PicklerObject, ptr %52, i32 0, i32 13
  store i64 -1, ptr %53, align 8, !tbaa !56
  store i32 0, ptr %2, align 4
  store i32 1, ptr %6, align 4
  br label %54

54:                                               ; preds = %51, %16
  call void @llvm.lifetime.end.p0(i64 8, ptr %5) #10
  call void @llvm.lifetime.end.p0(i64 8, ptr %4) #10
  %55 = load i32, ptr %2, align 4
  ret i32 %55
}

; Function Attrs: inlinehint nounwind uwtable
define internal void @Py_XDECREF(ptr noundef %0) #3 {
  %2 = alloca ptr, align 8
  store ptr %0, ptr %2, align 8, !tbaa !3
  %3 = load ptr, ptr %2, align 8, !tbaa !3
  %4 = icmp ne ptr %3, null
  br i1 %4, label %5, label %7

5:                                                ; preds = %1
  %6 = load ptr, ptr %2, align 8, !tbaa !3
  call void @Py_DECREF(ptr noundef %6)
  br label %7

7:                                                ; preds = %5, %1
  ret void
}

; Function Attrs: nounwind uwtable
define internal ptr @_Pickle_FastCall(ptr noundef %0, ptr noundef %1) #0 {
  %3 = alloca ptr, align 8
  %4 = alloca ptr, align 8
  %5 = alloca ptr, align 8
  store ptr %0, ptr %3, align 8, !tbaa !3
  store ptr %1, ptr %4, align 8, !tbaa !3
  call void @llvm.lifetime.start.p0(i64 8, ptr %5) #10
  %6 = load ptr, ptr %3, align 8, !tbaa !3
  %7 = load ptr, ptr %4, align 8, !tbaa !3
  %8 = call ptr @PyObject_CallOneArg(ptr noundef %6, ptr noundef %7)
  store ptr %8, ptr %5, align 8, !tbaa !3
  %9 = load ptr, ptr %4, align 8, !tbaa !3
  call void @Py_DECREF(ptr noundef %9)
  %10 = load ptr, ptr %5, align 8, !tbaa !3
  call void @llvm.lifetime.end.p0(i64 8, ptr %5) #10
  ret ptr %10
}

; Function Attrs: nounwind uwtable
define internal ptr @_Pickler_GetString(ptr noundef %0) #0 {
  %2 = alloca ptr, align 8
  %3 = alloca ptr, align 8
  %4 = alloca ptr, align 8
  %5 = alloca i32, align 4
  store ptr %0, ptr %3, align 8, !tbaa !38
  call void @llvm.lifetime.start.p0(i64 8, ptr %4) #10
  %6 = load ptr, ptr %3, align 8, !tbaa !38
  %7 = getelementptr inbounds nuw %struct.PicklerObject, ptr %6, i32 0, i32 7
  %8 = load ptr, ptr %7, align 8, !tbaa !50
  store ptr %8, ptr %4, align 8, !tbaa !3
  %9 = load ptr, ptr %3, align 8, !tbaa !38
  %10 = call i32 @_Pickler_CommitFrame(ptr noundef %9)
  %11 = icmp ne i32 %10, 0
  br i1 %11, label %12, label %13

12:                                               ; preds = %1
  store ptr null, ptr %2, align 8
  store i32 1, ptr %5, align 4
  br label %24

13:                                               ; preds = %1
  %14 = load ptr, ptr %3, align 8, !tbaa !38
  %15 = getelementptr inbounds nuw %struct.PicklerObject, ptr %14, i32 0, i32 7
  store ptr null, ptr %15, align 8, !tbaa !50
  %16 = load ptr, ptr %3, align 8, !tbaa !38
  %17 = getelementptr inbounds nuw %struct.PicklerObject, ptr %16, i32 0, i32 8
  %18 = load i64, ptr %17, align 8, !tbaa !51
  %19 = call i32 @_PyBytes_Resize(ptr noundef %4, i64 noundef %18)
  %20 = icmp slt i32 %19, 0
  br i1 %20, label %21, label %22

21:                                               ; preds = %13
  store ptr null, ptr %2, align 8
  store i32 1, ptr %5, align 4
  br label %24

22:                                               ; preds = %13
  %23 = load ptr, ptr %4, align 8, !tbaa !3
  store ptr %23, ptr %2, align 8
  store i32 1, ptr %5, align 4
  br label %24

24:                                               ; preds = %22, %21, %12
  call void @llvm.lifetime.end.p0(i64 8, ptr %4) #10
  %25 = load ptr, ptr %2, align 8
  ret ptr %25
}

; Function Attrs: nounwind uwtable
define internal i32 @_Pickler_FlushToFile(ptr noundef %0) #0 {
  %2 = alloca i32, align 4
  %3 = alloca ptr, align 8
  %4 = alloca ptr, align 8
  %5 = alloca ptr, align 8
  %6 = alloca i32, align 4
  store ptr %0, ptr %3, align 8, !tbaa !38
  call void @llvm.lifetime.start.p0(i64 8, ptr %4) #10
  call void @llvm.lifetime.start.p0(i64 8, ptr %5) #10
  %7 = load ptr, ptr %3, align 8, !tbaa !38
  %8 = call ptr @_Pickler_GetString(ptr noundef %7)
  store ptr %8, ptr %4, align 8, !tbaa !3
  %9 = load ptr, ptr %4, align 8, !tbaa !3
  %10 = icmp eq ptr %9, null
  br i1 %10, label %11, label %12

11:                                               ; preds = %1
  store i32 -1, ptr %2, align 4
  store i32 1, ptr %6, align 4
  br label %22

12:                                               ; preds = %1
  %13 = load ptr, ptr %3, align 8, !tbaa !38
  %14 = getelementptr inbounds nuw %struct.PicklerObject, ptr %13, i32 0, i32 6
  %15 = load ptr, ptr %14, align 8, !tbaa !49
  %16 = load ptr, ptr %4, align 8, !tbaa !3
  %17 = call ptr @_Pickle_FastCall(ptr noundef %15, ptr noundef %16)
  store ptr %17, ptr %5, align 8, !tbaa !3
  %18 = load ptr, ptr %5, align 8, !tbaa !3
  call void @Py_XDECREF(ptr noundef %18)
  %19 = load ptr, ptr %5, align 8, !tbaa !3
  %20 = icmp eq ptr %19, null
  %21 = select i1 %20, i32 -1, i32 0
  store i32 %21, ptr %2, align 4
  store i32 1, ptr %6, align 4
  br label %22

22:                                               ; preds = %12, %11
  call void @llvm.lifetime.end.p0(i64 8, ptr %5) #10
  call void @llvm.lifetime.end.p0(i64 8, ptr %4) #10
  %23 = load i32, ptr %2, align 4
  ret i32 %23
}