; Function Attrs: nounwind uwtable
define internal fastcc range(i32 -1, 1) i32 @_Pickler_FlushToFile(ptr noundef captures(none) %0) unnamed_addr #0 {
  %2 = alloca ptr, align 8
  call void @llvm.lifetime.start.p0(i64 8, ptr nonnull %2) #13
  %3 = getelementptr inbounds nuw i8, ptr %0, i64 64
  %4 = load ptr, ptr %3, align 8, !tbaa !44
  store ptr %4, ptr %2, align 8, !tbaa !35
  %5 = getelementptr inbounds nuw i8, ptr %0, i64 96
  %6 = load i32, ptr %5, align 8, !tbaa !45
  %.not.i.i = icmp eq i32 %6, 0
  br i1 %.not.i.i, label %_Pickler_GetString.exit, label %7

7:                                                ; preds = %1
  %8 = getelementptr inbounds nuw i8, ptr %0, i64 104
  %9 = load i64, ptr %8, align 8, !tbaa !46
  %10 = icmp eq i64 %9, -1
  br i1 %10, label %_Pickler_GetString.exit, label %11

11:                                               ; preds = %7
  %12 = getelementptr inbounds nuw i8, ptr %0, i64 72
  %13 = load i64, ptr %12, align 8, !tbaa !47
  %14 = sub i64 %13, %9
  %15 = add i64 %14, -9
  %16 = getelementptr inbounds nuw i8, ptr %4, i64 32
  %17 = getelementptr i8, ptr %16, i64 %9
  %18 = icmp ugt i64 %15, 3
  br i1 %18, label %19, label %27

19:                                               ; preds = %11
  store i8 -107, ptr %17, align 1, !tbaa !42
  %20 = getelementptr i8, ptr %17, i64 1
  br label %21

21:                                               ; preds = %21, %19
  %.09.i.i.i = phi i64 [ 0, %19 ], [ %26, %21 ]
  %22 = shl nuw nsw i64 %.09.i.i.i, 3
  %23 = lshr i64 %15, %22
  %24 = trunc i64 %23 to i8
  %25 = getelementptr i8, ptr %20, i64 %.09.i.i.i
  store i8 %24, ptr %25, align 1, !tbaa !42
  %26 = add nuw nsw i64 %.09.i.i.i, 1
  %exitcond.not.i.i.i = icmp eq i64 %26, 8
  br i1 %exitcond.not.i.i.i, label %_write_size64.exit.i.i, label %21, !llvm.loop !48

27:                                               ; preds = %11
  %28 = getelementptr i8, ptr %17, i64 9
  tail call void @llvm.memmove.p0.p0.i64(ptr align 1 %17, ptr align 1 %28, i64 %15, i1 false)
  %29 = load i64, ptr %12, align 8, !tbaa !47
  %30 = add i64 %29, -9
  store i64 %30, ptr %12, align 8, !tbaa !47
  br label %_write_size64.exit.i.i

_write_size64.exit.i.i:                           ; preds = %21, %27
  store i64 -1, ptr %8, align 8, !tbaa !46
  br label %_Pickler_GetString.exit

_Pickler_GetString.exit:                          ; preds = %1, %7, %_write_size64.exit.i.i
  store ptr null, ptr %3, align 8, !tbaa !44
  %31 = getelementptr inbounds nuw i8, ptr %0, i64 72
  %32 = load i64, ptr %31, align 8, !tbaa !47
  %33 = call i32 @_PyBytes_Resize(ptr noundef nonnull %2, i64 noundef %32) #13
  %34 = icmp slt i32 %33, 0
  %35 = load ptr, ptr %2, align 8
  call void @llvm.lifetime.end.p0(i64 8, ptr nonnull %2) #13
  %36 = icmp eq ptr %35, null
  %37 = select i1 %34, i1 true, i1 %36
  br i1 %37, label %54, label %38

38:                                               ; preds = %_Pickler_GetString.exit
  %39 = getelementptr inbounds nuw i8, ptr %0, i64 56
  %40 = load ptr, ptr %39, align 8, !tbaa !41
  %41 = call ptr @PyObject_CallOneArg(ptr noundef %40, ptr noundef nonnull %35) #13
  %42 = load i32, ptr %35, align 8, !tbaa !42
  %.not.i.i7 = icmp sgt i32 %42, -1
  br i1 %.not.i.i7, label %43, label %_Pickle_FastCall.exit

43:                                               ; preds = %38
  %44 = add nsw i32 %42, -1
  store i32 %44, ptr %35, align 8, !tbaa !42
  %45 = icmp eq i32 %44, 0
  br i1 %45, label %46, label %_Pickle_FastCall.exit

46:                                               ; preds = %43
  call void @_Py_Dealloc(ptr noundef nonnull %35) #13
  br label %_Pickle_FastCall.exit

_Pickle_FastCall.exit:                            ; preds = %38, %43, %46
  %.not.i = icmp eq ptr %41, null
  br i1 %.not.i, label %Py_XDECREF.exit, label %47

47:                                               ; preds = %_Pickle_FastCall.exit
  %48 = load i32, ptr %41, align 8, !tbaa !42
  %.not.i.i8 = icmp sgt i32 %48, -1
  br i1 %.not.i.i8, label %49, label %Py_XDECREF.exit

49:                                               ; preds = %47
  %50 = add nsw i32 %48, -1
  store i32 %50, ptr %41, align 8, !tbaa !42
  %51 = icmp eq i32 %50, 0
  br i1 %51, label %52, label %Py_XDECREF.exit

52:                                               ; preds = %49
  call void @_Py_Dealloc(ptr noundef nonnull %41) #13
  br label %Py_XDECREF.exit

Py_XDECREF.exit:                                  ; preds = %_Pickle_FastCall.exit, %47, %49, %52
  %53 = sext i1 %.not.i to i32
  br label %54

54:                                               ; preds = %_Pickler_GetString.exit, %Py_XDECREF.exit
  %.0 = phi i32 [ %53, %Py_XDECREF.exit ], [ -1, %_Pickler_GetString.exit ]
  ret i32 %.0
}